Certificate:
    Data:
        Version: 3 (0x2)
        Serial Number: 258 (0x102)
    Signature Algorithm: sha256WithRSAEncryption
        Issuer: C=CN, ST=Some-State, O=Internet Widgits Pty Ltd, CN=localhost
        Validity
            Not Before: Apr 11 02:36:24 2018 GMT
            Not After : Apr 11 02:36:24 2019 GMT
        Subject: C=CN, ST=Some-State, O=Internet Widgits Pty Ltd, CN=localhost
        Subject Public Key Info:
            Public Key Algorithm: rsaEncryption
                Public-Key: (1024 bit)
                Modulus:
                    00:e2:e2:ee:70:69:24:e9:6b:00:41:c4:53:6d:59:
                    c6:5f:22:74:be:90:71:7f:53:58:25:70:be:28:6a:
                    6d:24:70:65:27:15:cc:06:86:21:83:53:46:53:41:
                    dd:f8:dd:fe:42:49:41:44:5e:10:0b:a6:a0:bb:58:
                    af:9d:dd:b5:51:ee:7c:45:27:ff:42:92:ee:e7:ff:
                    fb:76:31:61:71:45:5b:7d:0c:9c:7a:ad:00:a0:21:
                    f9:d1:ea:e0:84:a6:25:65:c7:6a:3d:6e:6b:86:24:
                    77:64:1f:ee:7f:f7:aa:e8:ba:1f:93:36:75:a4:09:
                    97:57:02:e2:a3:3d:21:1f:35
                Exponent: 65537 (0x10001)
        X509v3 extensions:
            X509v3 Basic Constraints: 
                CA:FALSE
            Netscape Comment: 
                OpenSSL Generated Certificate
            X509v3 Subject Key Identifier: 
                D4:23:DB:23:84:49:2C:F7:A0:E8:11:0C:EF:34:68:88:98:3C:F3:91
            X509v3 Authority Key Identifier: 
                keyid:4E:14:A9:D7:F8:64:D3:DF:80:EE:98:52:D7:F0:BE:BD:E0:0F:D8:90

    Signature Algorithm: sha256WithRSAEncryption
         4a:fe:ad:bf:34:07:18:1a:03:63:52:a4:1a:6a:15:72:8b:cd:
         48:38:71:ab:a0:1f:d3:52:17:23:05:30:92:e6:c3:35:4b:57:
         6e:8d:92:3e:ee:14:36:37:60:45:e5:e4:64:94:11:88:b5:38:
         dc:89:4b:ce:17:26:20:3b:03:44:95:5b:ed:01:44:da:e8:cf:
         40:fb:8d:3b:1c:28:df:99:4a:ba:a6:1b:32:63:96:81:cc:28:
         6f:fe:5d:dd:6a:93:f3:3c:48:93:62:04:6a:ca:30:db:e7:55:
         38:82:b8:d4:0c:3e:88:50:a0:14:81:39:91:34:6f:ad:bf:a1:
         9e:ec:70:08:d9:0e:26:e4:35:bb:05:c5:db:7a:69:af:a3:2f:
         ba:15:40:a9:20:b9:94:51:53:85:3a:c3:8b:3c:31:73:2f:15:
         16:c8:81:80:7a:25:2b:dd:5d:b7:8e:91:79:21:15:ab:da:ba:
         53:99:0a:e0:82:03:ea:35:a5:7b:13:16:7e:f1:7c:59:2b:a1:
         6f:f8:17:02:22:82:83:95:6d:54:9b:7d:ed:7b:52:51:b1:d4:
         50:6d:a6:5d:82:04:5e:5c:5e:5e:98:a3:dc:76:c9:9a:a2:b4:
         3d:df:6c:bf:11:05:ca:10:ca:29:99:a3:88:6f:80:96:85:17:
         b8:44:c6:7e
-----BEGIN CERTIFICATE-----
MIIDJTCCAg2gAwIBAgICAQIwDQYJKoZIhvcNAQELBQAwWTELMAkGA1UEBhMCQ04x
EzARBgNVBAgMClNvbWUtU3RhdGUxITAfBgNVBAoMGEludGVybmV0IFdpZGdpdHMg
UHR5IEx0ZDESMBAGA1UEAwwJbG9jYWxob3N0MB4XDTE4MDQxMTAyMzYyNFoXDTE5
MDQxMTAyMzYyNFowWTELMAkGA1UEBhMCQ04xEzARBgNVBAgMClNvbWUtU3RhdGUx
ITAfBgNVBAoMGEludGVybmV0IFdpZGdpdHMgUHR5IEx0ZDESMBAGA1UEAwwJbG9j
YWxob3N0MIGfMA0GCSqGSIb3DQEBAQUAA4GNADCBiQKBgQDi4u5waSTpawBBxFNt
WcZfInS+kHF/U1glcL4oam0kcGUnFcwGhiGDU0ZTQd343f5CSUFEXhALpqC7WK+d
3bVR7nxFJ/9Cku7n//t2MWFxRVt9DJx6rQCgIfnR6uCEpiVlx2o9bmuGJHdkH+5/
96rouh+TNnWkCZdXAuKjPSEfNQIDAQABo3sweTAJBgNVHRMEAjAAMCwGCWCGSAGG
+EIBDQQfFh1PcGVuU1NMIEdlbmVyYXRlZCBDZXJ0aWZpY2F0ZTAdBgNVHQ4EFgQU
1CPbI4RJLPeg6BEM7zRoiJg885EwHwYDVR0jBBgwFoAUThSp1/hk09+A7phS1/C+
veAP2JAwDQYJKoZIhvcNAQELBQADggEBAEr+rb80BxgaA2NSpBpqFXKLzUg4caug
H9NSFyMFMJLmwzVLV26Nkj7uFDY3YEXl5GSUEYi1ONyJS84XJiA7A0SVW+0BRNro
z0D7jTscKN+ZSrqmGzJjloHMKG/+Xd1qk/M8SJNiBGrKMNvnVTiCuNQMPohQoBSB
OZE0b62/oZ7scAjZDibkNbsFxdt6aa+jL7oVQKkguZRRU4U6w4s8MXMvFRbIgYB6
JSvdXbeOkXkhFavaulOZCuCCA+o1pXsTFn7xfFkroW/4FwIigoOVbVSbfe17UlGx
1FBtpl2CBF5cXl6Yo9x2yZqitD3fbL8RBcoQyimZo4hvgJaFF7hExn4=
-----END CERTIFICATE-----
